; Function Attrs: mustprogress nofree norecurse nosync nounwind memory(readwrite, inaccessiblemem: none) uwtable
define hidden void @_ZN3ue228mergeReverseAccelerationInfoERNS_10RevAccInfoERKS0_(ptr noundef nonnull align 8 captures(none) dereferenceable(56) %0, ptr noundef nonnull readonly align 8 captures(none) dereferenceable(56) %1) local_unnamed_addr #3 {
  %3 = load i8, ptr %1, align 8, !range !5, !noundef !6
  %4 = load i8, ptr %0, align 8, !range !5, !noundef !6
  %5 = and i8 %4, %3
  store i8 %5, ptr %0, align 8
  %6 = getelementptr inbounds nuw i8, ptr %1, i64 8
  %7 = getelementptr inbounds nuw i8, ptr %0, i64 8
  %8 = getelementptr inbounds nuw i8, ptr %1, i64 32
  %9 = getelementptr inbounds nuw i8, ptr %0, i64 32
  br label %11

10:                                               ; preds = %11
  ret void

11:                                               ; preds = %2, %11
  %indvars.iv = phi i64 [ 0, %2 ], [ %indvars.iv.next, %11 ]
  %12 = load ptr, ptr %6, align 8
  %13 = getelementptr inbounds nuw %"class.ue2::CharReach", ptr %12, i64 %indvars.iv
  %14 = load ptr, ptr %7, align 8
  %15 = getelementptr inbounds nuw %"class.ue2::CharReach", ptr %14, i64 %indvars.iv
  %16 = load i64, ptr %13, align 8
  %17 = load i64, ptr %15, align 8
  %18 = or i64 %17, %16
  store i64 %18, ptr %15, align 8
  %19 = getelementptr inbounds nuw i8, ptr %13, i64 8
  %20 = load i64, ptr %19, align 8
  %21 = getelementptr inbounds nuw i8, ptr %15, i64 8
  %22 = load i64, ptr %21, align 8
  %23 = or i64 %22, %20
  store i64 %23, ptr %21, align 8
  %24 = getelementptr inbounds nuw i8, ptr %13, i64 16
  %25 = load i64, ptr %24, align 8
  %26 = getelementptr inbounds nuw i8, ptr %15, i64 16
  %27 = load i64, ptr %26, align 8
  %28 = or i64 %27, %25
  store i64 %28, ptr %26, align 8
  %29 = getelementptr inbounds nuw i8, ptr %13, i64 24
  %30 = load i64, ptr %29, align 8
  %31 = getelementptr inbounds nuw i8, ptr %15, i64 24
  %32 = load i64, ptr %31, align 8
  %33 = or i64 %32, %30
  store i64 %33, ptr %31, align 8
  %34 = load ptr, ptr %8, align 8
  %35 = getelementptr inbounds nuw %"class.ue2::CharReach", ptr %34, i64 %indvars.iv
  %36 = load ptr, ptr %9, align 8
  %37 = getelementptr inbounds nuw %"class.ue2::CharReach", ptr %36, i64 %indvars.iv
  %38 = load i64, ptr %35, align 8
  %39 = load i64, ptr %37, align 8
  %40 = or i64 %39, %38
  store i64 %40, ptr %37, align 8
  %41 = getelementptr inbounds nuw i8, ptr %35, i64 8
  %42 = load i64, ptr %41, align 8
  %43 = getelementptr inbounds nuw i8, ptr %37, i64 8
  %44 = load i64, ptr %43, align 8
  %45 = or i64 %44, %42
  store i64 %45, ptr %43, align 8
  %46 = getelementptr inbounds nuw i8, ptr %35, i64 16
  %47 = load i64, ptr %46, align 8
  %48 = getelementptr inbounds nuw i8, ptr %37, i64 16
  %49 = load i64, ptr %48, align 8
  %50 = or i64 %49, %47
  store i64 %50, ptr %48, align 8
  %51 = getelementptr inbounds nuw i8, ptr %35, i64 24
  %52 = load i64, ptr %51, align 8
  %53 = getelementptr inbounds nuw i8, ptr %37, i64 24
  %54 = load i64, ptr %53, align 8
  %55 = or i64 %54, %52
  store i64 %55, ptr %53, align 8
  %indvars.iv.next = add nuw nsw i64 %indvars.iv, 1
  %exitcond.not = icmp eq i64 %indvars.iv.next, 16
  br i1 %exitcond.not, label %10, label %11, !llvm.loop !28
}